
Taller.elf:     file format elf32-avr

Sections:
Idx Name          Size      VMA       LMA       File off  Algn
  0 .data         00000000  00800100  00800100  000002c2  2**0
                  CONTENTS, ALLOC, LOAD, DATA
  1 .text         0000026e  00000000  00000000  00000054  2**1
                  CONTENTS, ALLOC, LOAD, READONLY, CODE
  2 .comment      00000030  00000000  00000000  000002c2  2**0
                  CONTENTS, READONLY
  3 .note.gnu.avr.deviceinfo 00000040  00000000  00000000  000002f4  2**2
                  CONTENTS, READONLY
  4 .debug_aranges 00000040  00000000  00000000  00000334  2**0
                  CONTENTS, READONLY, DEBUGGING
  5 .debug_info   00000cc6  00000000  00000000  00000374  2**0
                  CONTENTS, READONLY, DEBUGGING
  6 .debug_abbrev 00000853  00000000  00000000  0000103a  2**0
                  CONTENTS, READONLY, DEBUGGING
  7 .debug_line   00000456  00000000  00000000  0000188d  2**0
                  CONTENTS, READONLY, DEBUGGING
  8 .debug_frame  00000064  00000000  00000000  00001ce4  2**2
                  CONTENTS, READONLY, DEBUGGING
  9 .debug_str    00000451  00000000  00000000  00001d48  2**0
                  CONTENTS, READONLY, DEBUGGING
 10 .debug_loc    000004de  00000000  00000000  00002199  2**0
                  CONTENTS, READONLY, DEBUGGING
 11 .debug_ranges 00000030  00000000  00000000  00002677  2**0
                  CONTENTS, READONLY, DEBUGGING

Disassembly of section .text:

00000000 <__vectors>:
   0:	45 c0       	rjmp	.+138    	; 0x8c <__ctors_end>
   2:	00 00       	nop
   4:	4b c0       	rjmp	.+150    	; 0x9c <__bad_interrupt>
   6:	00 00       	nop
   8:	49 c0       	rjmp	.+146    	; 0x9c <__bad_interrupt>
   a:	00 00       	nop
   c:	47 c0       	rjmp	.+142    	; 0x9c <__bad_interrupt>
   e:	00 00       	nop
  10:	45 c0       	rjmp	.+138    	; 0x9c <__bad_interrupt>
  12:	00 00       	nop
  14:	43 c0       	rjmp	.+134    	; 0x9c <__bad_interrupt>
  16:	00 00       	nop
  18:	41 c0       	rjmp	.+130    	; 0x9c <__bad_interrupt>
  1a:	00 00       	nop
  1c:	3f c0       	rjmp	.+126    	; 0x9c <__bad_interrupt>
  1e:	00 00       	nop
  20:	3d c0       	rjmp	.+122    	; 0x9c <__bad_interrupt>
  22:	00 00       	nop
  24:	3b c0       	rjmp	.+118    	; 0x9c <__bad_interrupt>
  26:	00 00       	nop
  28:	39 c0       	rjmp	.+114    	; 0x9c <__bad_interrupt>
  2a:	00 00       	nop
  2c:	37 c0       	rjmp	.+110    	; 0x9c <__bad_interrupt>
  2e:	00 00       	nop
  30:	35 c0       	rjmp	.+106    	; 0x9c <__bad_interrupt>
  32:	00 00       	nop
  34:	33 c0       	rjmp	.+102    	; 0x9c <__bad_interrupt>
  36:	00 00       	nop
  38:	31 c0       	rjmp	.+98     	; 0x9c <__bad_interrupt>
  3a:	00 00       	nop
  3c:	2f c0       	rjmp	.+94     	; 0x9c <__bad_interrupt>
  3e:	00 00       	nop
  40:	2d c0       	rjmp	.+90     	; 0x9c <__bad_interrupt>
  42:	00 00       	nop
  44:	2b c0       	rjmp	.+86     	; 0x9c <__bad_interrupt>
  46:	00 00       	nop
  48:	29 c0       	rjmp	.+82     	; 0x9c <__bad_interrupt>
  4a:	00 00       	nop
  4c:	27 c0       	rjmp	.+78     	; 0x9c <__bad_interrupt>
  4e:	00 00       	nop
  50:	25 c0       	rjmp	.+74     	; 0x9c <__bad_interrupt>
  52:	00 00       	nop
  54:	23 c0       	rjmp	.+70     	; 0x9c <__bad_interrupt>
  56:	00 00       	nop
  58:	21 c0       	rjmp	.+66     	; 0x9c <__bad_interrupt>
  5a:	00 00       	nop
  5c:	1f c0       	rjmp	.+62     	; 0x9c <__bad_interrupt>
  5e:	00 00       	nop
  60:	1d c0       	rjmp	.+58     	; 0x9c <__bad_interrupt>
  62:	00 00       	nop
  64:	1b c0       	rjmp	.+54     	; 0x9c <__bad_interrupt>
  66:	00 00       	nop
  68:	19 c0       	rjmp	.+50     	; 0x9c <__bad_interrupt>
  6a:	00 00       	nop
  6c:	17 c0       	rjmp	.+46     	; 0x9c <__bad_interrupt>
  6e:	00 00       	nop
  70:	15 c0       	rjmp	.+42     	; 0x9c <__bad_interrupt>
  72:	00 00       	nop
  74:	13 c0       	rjmp	.+38     	; 0x9c <__bad_interrupt>
  76:	00 00       	nop
  78:	11 c0       	rjmp	.+34     	; 0x9c <__bad_interrupt>
  7a:	00 00       	nop
  7c:	0f c0       	rjmp	.+30     	; 0x9c <__bad_interrupt>
  7e:	00 00       	nop
  80:	0d c0       	rjmp	.+26     	; 0x9c <__bad_interrupt>
  82:	00 00       	nop
  84:	0b c0       	rjmp	.+22     	; 0x9c <__bad_interrupt>
  86:	00 00       	nop
  88:	09 c0       	rjmp	.+18     	; 0x9c <__bad_interrupt>
	...

0000008c <__ctors_end>:
  8c:	11 24       	eor	r1, r1
  8e:	1f be       	out	0x3f, r1	; 63
  90:	cf ef       	ldi	r28, 0xFF	; 255
  92:	d0 e4       	ldi	r29, 0x40	; 64
  94:	de bf       	out	0x3e, r29	; 62
  96:	cd bf       	out	0x3d, r28	; 61
  98:	ce d0       	rcall	.+412    	; 0x236 <main>
  9a:	e7 c0       	rjmp	.+462    	; 0x26a <_exit>

0000009c <__bad_interrupt>:
  9c:	b1 cf       	rjmp	.-158    	; 0x0 <__vectors>

0000009e <secuencia1>:
#include <avr/io.h>
#include <util/delay.h>

// Secuencia 1 - Barrido simple
void secuencia1(void) {
	PORTB = 0x01; _delay_ms(200);
  9e:	81 e0       	ldi	r24, 0x01	; 1
  a0:	85 b9       	out	0x05, r24	; 5
	#else
		//round up by default
		__ticks_dc = (uint32_t)(ceil(fabs(__tmp)));
	#endif

	__builtin_avr_delay_cycles(__ticks_dc);
  a2:	2f ef       	ldi	r18, 0xFF	; 255
  a4:	84 e3       	ldi	r24, 0x34	; 52
  a6:	9c e0       	ldi	r25, 0x0C	; 12
  a8:	21 50       	subi	r18, 0x01	; 1
  aa:	80 40       	sbci	r24, 0x00	; 0
  ac:	90 40       	sbci	r25, 0x00	; 0
  ae:	e1 f7       	brne	.-8      	; 0xa8 <secuencia1+0xa>
  b0:	00 c0       	rjmp	.+0      	; 0xb2 <secuencia1+0x14>
  b2:	00 00       	nop
	PORTB = 0x02; _delay_ms(200);
  b4:	82 e0       	ldi	r24, 0x02	; 2
  b6:	85 b9       	out	0x05, r24	; 5
  b8:	2f ef       	ldi	r18, 0xFF	; 255
  ba:	84 e3       	ldi	r24, 0x34	; 52
  bc:	9c e0       	ldi	r25, 0x0C	; 12
  be:	21 50       	subi	r18, 0x01	; 1
  c0:	80 40       	sbci	r24, 0x00	; 0
  c2:	90 40       	sbci	r25, 0x00	; 0
  c4:	e1 f7       	brne	.-8      	; 0xbe <secuencia1+0x20>
  c6:	00 c0       	rjmp	.+0      	; 0xc8 <secuencia1+0x2a>
  c8:	00 00       	nop
	PORTB = 0x04; _delay_ms(200);
  ca:	84 e0       	ldi	r24, 0x04	; 4
  cc:	85 b9       	out	0x05, r24	; 5
  ce:	2f ef       	ldi	r18, 0xFF	; 255
  d0:	84 e3       	ldi	r24, 0x34	; 52
  d2:	9c e0       	ldi	r25, 0x0C	; 12
  d4:	21 50       	subi	r18, 0x01	; 1
  d6:	80 40       	sbci	r24, 0x00	; 0
  d8:	90 40       	sbci	r25, 0x00	; 0
  da:	e1 f7       	brne	.-8      	; 0xd4 <secuencia1+0x36>
  dc:	00 c0       	rjmp	.+0      	; 0xde <secuencia1+0x40>
  de:	00 00       	nop
	PORTB = 0x08; _delay_ms(200);
  e0:	88 e0       	ldi	r24, 0x08	; 8
  e2:	85 b9       	out	0x05, r24	; 5
  e4:	2f ef       	ldi	r18, 0xFF	; 255
  e6:	84 e3       	ldi	r24, 0x34	; 52
  e8:	9c e0       	ldi	r25, 0x0C	; 12
  ea:	21 50       	subi	r18, 0x01	; 1
  ec:	80 40       	sbci	r24, 0x00	; 0
  ee:	90 40       	sbci	r25, 0x00	; 0
  f0:	e1 f7       	brne	.-8      	; 0xea <secuencia1+0x4c>
  f2:	00 c0       	rjmp	.+0      	; 0xf4 <secuencia1+0x56>
  f4:	00 00       	nop
	PORTB = 0x10; _delay_ms(200);
  f6:	80 e1       	ldi	r24, 0x10	; 16
  f8:	85 b9       	out	0x05, r24	; 5
  fa:	2f ef       	ldi	r18, 0xFF	; 255
  fc:	84 e3       	ldi	r24, 0x34	; 52
  fe:	9c e0       	ldi	r25, 0x0C	; 12
 100:	21 50       	subi	r18, 0x01	; 1
 102:	80 40       	sbci	r24, 0x00	; 0
 104:	90 40       	sbci	r25, 0x00	; 0
 106:	e1 f7       	brne	.-8      	; 0x100 <secuencia1+0x62>
 108:	00 c0       	rjmp	.+0      	; 0x10a <secuencia1+0x6c>
 10a:	00 00       	nop
	PORTB = 0x20; _delay_ms(200);
 10c:	80 e2       	ldi	r24, 0x20	; 32
 10e:	85 b9       	out	0x05, r24	; 5
 110:	2f ef       	ldi	r18, 0xFF	; 255
 112:	84 e3       	ldi	r24, 0x34	; 52
 114:	9c e0       	ldi	r25, 0x0C	; 12
 116:	21 50       	subi	r18, 0x01	; 1
 118:	80 40       	sbci	r24, 0x00	; 0
 11a:	90 40       	sbci	r25, 0x00	; 0
 11c:	e1 f7       	brne	.-8      	; 0x116 <secuencia1+0x78>
 11e:	00 c0       	rjmp	.+0      	; 0x120 <secuencia1+0x82>
 120:	00 00       	nop
	PORTB = 0x40; _delay_ms(200);
 122:	80 e4       	ldi	r24, 0x40	; 64
 124:	85 b9       	out	0x05, r24	; 5
 126:	2f ef       	ldi	r18, 0xFF	; 255
 128:	84 e3       	ldi	r24, 0x34	; 52
 12a:	9c e0       	ldi	r25, 0x0C	; 12
 12c:	21 50       	subi	r18, 0x01	; 1
 12e:	80 40       	sbci	r24, 0x00	; 0
 130:	90 40       	sbci	r25, 0x00	; 0
 132:	e1 f7       	brne	.-8      	; 0x12c <secuencia1+0x8e>
 134:	00 c0       	rjmp	.+0      	; 0x136 <secuencia1+0x98>
 136:	00 00       	nop
	PORTB = 0x80; _delay_ms(200);
 138:	80 e8       	ldi	r24, 0x80	; 128
 13a:	85 b9       	out	0x05, r24	; 5
 13c:	2f ef       	ldi	r18, 0xFF	; 255
 13e:	84 e3       	ldi	r24, 0x34	; 52
 140:	9c e0       	ldi	r25, 0x0C	; 12
 142:	21 50       	subi	r18, 0x01	; 1
 144:	80 40       	sbci	r24, 0x00	; 0
 146:	90 40       	sbci	r25, 0x00	; 0
 148:	e1 f7       	brne	.-8      	; 0x142 <secuencia1+0xa4>
 14a:	00 c0       	rjmp	.+0      	; 0x14c <secuencia1+0xae>
 14c:	00 00       	nop
 14e:	08 95       	ret

00000150 <secuencia2>:
}

// Secuencia 2 - Extremos al centro
void secuencia2(void) {
	PORTB = 0x81; _delay_ms(200);
 150:	81 e8       	ldi	r24, 0x81	; 129
 152:	85 b9       	out	0x05, r24	; 5
 154:	2f ef       	ldi	r18, 0xFF	; 255
 156:	84 e3       	ldi	r24, 0x34	; 52
 158:	9c e0       	ldi	r25, 0x0C	; 12
 15a:	21 50       	subi	r18, 0x01	; 1
 15c:	80 40       	sbci	r24, 0x00	; 0
 15e:	90 40       	sbci	r25, 0x00	; 0
 160:	e1 f7       	brne	.-8      	; 0x15a <secuencia2+0xa>
 162:	00 c0       	rjmp	.+0      	; 0x164 <secuencia2+0x14>
 164:	00 00       	nop
	PORTB = 0x42; _delay_ms(200);
 166:	82 e4       	ldi	r24, 0x42	; 66
 168:	85 b9       	out	0x05, r24	; 5
 16a:	2f ef       	ldi	r18, 0xFF	; 255
 16c:	84 e3       	ldi	r24, 0x34	; 52
 16e:	9c e0       	ldi	r25, 0x0C	; 12
 170:	21 50       	subi	r18, 0x01	; 1
 172:	80 40       	sbci	r24, 0x00	; 0
 174:	90 40       	sbci	r25, 0x00	; 0
 176:	e1 f7       	brne	.-8      	; 0x170 <secuencia2+0x20>
 178:	00 c0       	rjmp	.+0      	; 0x17a <secuencia2+0x2a>
 17a:	00 00       	nop
	PORTB = 0x24; _delay_ms(200);
 17c:	84 e2       	ldi	r24, 0x24	; 36
 17e:	85 b9       	out	0x05, r24	; 5
 180:	2f ef       	ldi	r18, 0xFF	; 255
 182:	84 e3       	ldi	r24, 0x34	; 52
 184:	9c e0       	ldi	r25, 0x0C	; 12
 186:	21 50       	subi	r18, 0x01	; 1
 188:	80 40       	sbci	r24, 0x00	; 0
 18a:	90 40       	sbci	r25, 0x00	; 0
 18c:	e1 f7       	brne	.-8      	; 0x186 <secuencia2+0x36>
 18e:	00 c0       	rjmp	.+0      	; 0x190 <secuencia2+0x40>
 190:	00 00       	nop
	PORTB = 0x18; _delay_ms(200);
 192:	88 e1       	ldi	r24, 0x18	; 24
 194:	85 b9       	out	0x05, r24	; 5
 196:	2f ef       	ldi	r18, 0xFF	; 255
 198:	84 e3       	ldi	r24, 0x34	; 52
 19a:	9c e0       	ldi	r25, 0x0C	; 12
 19c:	21 50       	subi	r18, 0x01	; 1
 19e:	80 40       	sbci	r24, 0x00	; 0
 1a0:	90 40       	sbci	r25, 0x00	; 0
 1a2:	e1 f7       	brne	.-8      	; 0x19c <secuencia2+0x4c>
 1a4:	00 c0       	rjmp	.+0      	; 0x1a6 <secuencia2+0x56>
 1a6:	00 00       	nop
 1a8:	08 95       	ret

000001aa <secuencia3>:
}

// Secuencia 3 - Alterno pares/impares
void secuencia3(void) {
	PORTB = 0xAA; _delay_ms(300); // 10101010
 1aa:	8a ea       	ldi	r24, 0xAA	; 170
 1ac:	85 b9       	out	0x05, r24	; 5
 1ae:	2f e7       	ldi	r18, 0x7F	; 127
 1b0:	8f e4       	ldi	r24, 0x4F	; 79
 1b2:	92 e1       	ldi	r25, 0x12	; 18
 1b4:	21 50       	subi	r18, 0x01	; 1
 1b6:	80 40       	sbci	r24, 0x00	; 0
 1b8:	90 40       	sbci	r25, 0x00	; 0
 1ba:	e1 f7       	brne	.-8      	; 0x1b4 <secuencia3+0xa>
 1bc:	00 c0       	rjmp	.+0      	; 0x1be <secuencia3+0x14>
 1be:	00 00       	nop
	PORTB = 0x55; _delay_ms(300); // 01010101
 1c0:	85 e5       	ldi	r24, 0x55	; 85
 1c2:	85 b9       	out	0x05, r24	; 5
 1c4:	2f e7       	ldi	r18, 0x7F	; 127
 1c6:	8f e4       	ldi	r24, 0x4F	; 79
 1c8:	92 e1       	ldi	r25, 0x12	; 18
 1ca:	21 50       	subi	r18, 0x01	; 1
 1cc:	80 40       	sbci	r24, 0x00	; 0
 1ce:	90 40       	sbci	r25, 0x00	; 0
 1d0:	e1 f7       	brne	.-8      	; 0x1ca <secuencia3+0x20>
 1d2:	00 c0       	rjmp	.+0      	; 0x1d4 <secuencia3+0x2a>
 1d4:	00 00       	nop
 1d6:	08 95       	ret

000001d8 <secuencia4>:
}

// Secuencia 4 - Barrido ida y vuelta
void secuencia4(void) {
	for(uint8_t i = 0; i < 8; i++) {
 1d8:	80 e0       	ldi	r24, 0x00	; 0
 1da:	13 c0       	rjmp	.+38     	; 0x202 <secuencia4+0x2a>
		PORTB = (1 << i);
 1dc:	21 e0       	ldi	r18, 0x01	; 1
 1de:	30 e0       	ldi	r19, 0x00	; 0
 1e0:	08 2e       	mov	r0, r24
 1e2:	02 c0       	rjmp	.+4      	; 0x1e8 <secuencia4+0x10>
 1e4:	22 0f       	add	r18, r18
 1e6:	33 1f       	adc	r19, r19
 1e8:	0a 94       	dec	r0
 1ea:	e2 f7       	brpl	.-8      	; 0x1e4 <secuencia4+0xc>
 1ec:	25 b9       	out	0x05, r18	; 5
 1ee:	2f eb       	ldi	r18, 0xBF	; 191
 1f0:	37 e2       	ldi	r19, 0x27	; 39
 1f2:	99 e0       	ldi	r25, 0x09	; 9
 1f4:	21 50       	subi	r18, 0x01	; 1
 1f6:	30 40       	sbci	r19, 0x00	; 0
 1f8:	90 40       	sbci	r25, 0x00	; 0
 1fa:	e1 f7       	brne	.-8      	; 0x1f4 <secuencia4+0x1c>
 1fc:	00 c0       	rjmp	.+0      	; 0x1fe <secuencia4+0x26>
 1fe:	00 00       	nop
	PORTB = 0x55; _delay_ms(300); // 01010101
}

// Secuencia 4 - Barrido ida y vuelta
void secuencia4(void) {
	for(uint8_t i = 0; i < 8; i++) {
 200:	8f 5f       	subi	r24, 0xFF	; 255
 202:	88 30       	cpi	r24, 0x08	; 8
 204:	58 f3       	brcs	.-42     	; 0x1dc <secuencia4+0x4>
 206:	86 e0       	ldi	r24, 0x06	; 6
 208:	13 c0       	rjmp	.+38     	; 0x230 <secuencia4+0x58>
		PORTB = (1 << i);
		_delay_ms(150);
	}
	for(int8_t i = 6; i >= 0; i--) {
		PORTB = (1 << i);
 20a:	21 e0       	ldi	r18, 0x01	; 1
 20c:	30 e0       	ldi	r19, 0x00	; 0
 20e:	08 2e       	mov	r0, r24
 210:	02 c0       	rjmp	.+4      	; 0x216 <secuencia4+0x3e>
 212:	22 0f       	add	r18, r18
 214:	33 1f       	adc	r19, r19
 216:	0a 94       	dec	r0
 218:	e2 f7       	brpl	.-8      	; 0x212 <secuencia4+0x3a>
 21a:	25 b9       	out	0x05, r18	; 5
 21c:	2f eb       	ldi	r18, 0xBF	; 191
 21e:	37 e2       	ldi	r19, 0x27	; 39
 220:	99 e0       	ldi	r25, 0x09	; 9
 222:	21 50       	subi	r18, 0x01	; 1
 224:	30 40       	sbci	r19, 0x00	; 0
 226:	90 40       	sbci	r25, 0x00	; 0
 228:	e1 f7       	brne	.-8      	; 0x222 <secuencia4+0x4a>
 22a:	00 c0       	rjmp	.+0      	; 0x22c <secuencia4+0x54>
 22c:	00 00       	nop
void secuencia4(void) {
	for(uint8_t i = 0; i < 8; i++) {
		PORTB = (1 << i);
		_delay_ms(150);
	}
	for(int8_t i = 6; i >= 0; i--) {
 22e:	81 50       	subi	r24, 0x01	; 1
 230:	88 23       	and	r24, r24
 232:	5c f7       	brge	.-42     	; 0x20a <secuencia4+0x32>
		PORTB = (1 << i);
		_delay_ms(150);
	}
}
 234:	08 95       	ret

00000236 <main>:

int main(void) {
	DDRB = 0xFF;    // Puerto B como salida (LEDs)
 236:	8f ef       	ldi	r24, 0xFF	; 255
 238:	84 b9       	out	0x04, r24	; 4
	DDRD &= 0xF0;   // PD0–PD3 como entrada
 23a:	8a b1       	in	r24, 0x0a	; 10
 23c:	80 7f       	andi	r24, 0xF0	; 240
 23e:	8a b9       	out	0x0a, r24	; 10
	PORTB = 0x00;   // LEDs apagados
 240:	15 b8       	out	0x05, r1	; 5

	while (1) {
		uint8_t valor = PIND & 0x0F; // Lee nibble bajo (PD0–PD3)
 242:	89 b1       	in	r24, 0x09	; 9
 244:	8f 70       	andi	r24, 0x0F	; 15

		if (valor == 0x01) {        // PD0 activo
 246:	81 30       	cpi	r24, 0x01	; 1
 248:	11 f4       	brne	.+4      	; 0x24e <main+0x18>
			secuencia1();
 24a:	29 df       	rcall	.-430    	; 0x9e <secuencia1>
 24c:	fa cf       	rjmp	.-12     	; 0x242 <main+0xc>
		}
		else if (valor == 0x02) {   // PD1 activo
 24e:	82 30       	cpi	r24, 0x02	; 2
			secuencia2();
 250:	11 f4       	brne	.+4      	; 0x256 <main+0x20>
 252:	7e df       	rcall	.-260    	; 0x150 <secuencia2>
 254:	f6 cf       	rjmp	.-20     	; 0x242 <main+0xc>
		}
		else if (valor == 0x04) {   // PD2 activo
 256:	84 30       	cpi	r24, 0x04	; 4
			secuencia3();
 258:	11 f4       	brne	.+4      	; 0x25e <main+0x28>
 25a:	a7 df       	rcall	.-178    	; 0x1aa <secuencia3>
		}
		else if (valor == 0x08) {   // PD3 activo
 25c:	f2 cf       	rjmp	.-28     	; 0x242 <main+0xc>
 25e:	88 30       	cpi	r24, 0x08	; 8
			secuencia4();
 260:	11 f4       	brne	.+4      	; 0x266 <main+0x30>
 262:	ba df       	rcall	.-140    	; 0x1d8 <secuencia4>
 264:	ee cf       	rjmp	.-36     	; 0x242 <main+0xc>
		}
		else {
			PORTB = 0x00; // Ninguna entrada ? LEDs apagados
 266:	15 b8       	out	0x05, r1	; 5
 268:	ec cf       	rjmp	.-40     	; 0x242 <main+0xc>

0000026a <_exit>:
 26a:	f8 94       	cli

0000026c <__stop_program>:
 26c:	ff cf       	rjmp	.-2      	; 0x26c <__stop_program>
